; Function Attrs: nounwind uwtable
define noalias noundef ptr @Saig_MvManCreateNextSkip(ptr noundef readonly captures(none) %0) local_unnamed_addr #0 {
  %2 = alloca ptr, align 8
  call void @llvm.lifetime.start.p0(i64 8, ptr nonnull %2) #22
  %3 = call ptr @Saig_MvManFindOscilators(ptr noundef %0, ptr noundef nonnull %2)
  %4 = getelementptr inbounds nuw i8, ptr %0, i64 20
  %5 = load i32, ptr %4, align 4, !tbaa !48
  %6 = tail call noalias dereferenceable_or_null(16) ptr @malloc(i64 noundef 16) #19
  %7 = add i32 %5, -1
  %or.cond.i = icmp ult i32 %7, 15
  %spec.store.select.i = select i1 %or.cond.i, i32 16, i32 %5
  %8 = getelementptr inbounds nuw i8, ptr %6, i64 4
  store i32 %spec.store.select.i, ptr %6, align 8, !tbaa !85
  %.not.i = icmp eq i32 %spec.store.select.i, 0
  br i1 %.not.i, label %Vec_IntAlloc.exit.thread, label %Vec_IntAlloc.exit

Vec_IntAlloc.exit:                                ; preds = %1
  %9 = sext i32 %spec.store.select.i to i64
  %10 = shl nsw i64 %9, 2
  %11 = tail call noalias ptr @malloc(i64 noundef %10) #19
  %12 = getelementptr inbounds nuw i8, ptr %6, i64 8
  store ptr %11, ptr %12, align 8, !tbaa !74
  %.not.i.i = icmp slt i32 %spec.store.select.i, %5
  br i1 %.not.i.i, label %16, label %Vec_IntGrow.exit.i

Vec_IntAlloc.exit.thread:                         ; preds = %1
  %13 = getelementptr inbounds nuw i8, ptr %6, i64 8
  store ptr null, ptr %13, align 8, !tbaa !74
  %.not.i.i27 = icmp sgt i32 %5, 0
  br i1 %.not.i.i27, label %.thread, label %Vec_IntFill.exit

.thread:                                          ; preds = %Vec_IntAlloc.exit.thread
  %14 = zext nneg i32 %5 to i64
  %15 = shl nuw nsw i64 %14, 2
  br label %21

16:                                               ; preds = %Vec_IntAlloc.exit
  %.not9.i.i = icmp eq ptr %11, null
  %17 = sext i32 %5 to i64
  %18 = shl nsw i64 %17, 2
  br i1 %.not9.i.i, label %21, label %19

19:                                               ; preds = %16
  %20 = tail call ptr @realloc(ptr noundef nonnull %11, i64 noundef %18) #21
  br label %25

21:                                               ; preds = %.thread, %16
  %22 = phi i64 [ %15, %.thread ], [ %18, %16 ]
  %23 = phi ptr [ %13, %.thread ], [ %12, %16 ]
  %24 = tail call noalias ptr @malloc(i64 noundef %22) #19
  br label %25

25:                                               ; preds = %21, %19
  %26 = phi ptr [ %12, %19 ], [ %23, %21 ]
  %27 = phi ptr [ %20, %19 ], [ %24, %21 ]
  store ptr %27, ptr %26, align 8, !tbaa !74
  store i32 %5, ptr %6, align 8, !tbaa !85
  br label %Vec_IntGrow.exit.i

Vec_IntGrow.exit.i:                               ; preds = %25, %Vec_IntAlloc.exit
  %28 = phi ptr [ %27, %25 ], [ %11, %Vec_IntAlloc.exit ]
  %29 = icmp sgt i32 %5, 0
  br i1 %29, label %.lr.ph.i, label %Vec_IntFill.exit

.lr.ph.i:                                         ; preds = %Vec_IntGrow.exit.i
  %wide.trip.count.i = zext nneg i32 %5 to i64
  br label %30

30:                                               ; preds = %30, %.lr.ph.i
  %indvars.iv.i = phi i64 [ 0, %.lr.ph.i ], [ %indvars.iv.next.i, %30 ]
  %31 = getelementptr inbounds nuw i32, ptr %28, i64 %indvars.iv.i
  store i32 1, ptr %31, align 4, !tbaa !78
  %indvars.iv.next.i = add nuw nsw i64 %indvars.iv.i, 1
  %exitcond.not.i = icmp eq i64 %indvars.iv.next.i, %wide.trip.count.i
  br i1 %exitcond.not.i, label %Vec_IntFill.exit, label %30, !llvm.loop !103

Vec_IntFill.exit:                                 ; preds = %30, %Vec_IntAlloc.exit.thread, %Vec_IntGrow.exit.i
  %.val22 = phi ptr [ %28, %Vec_IntGrow.exit.i ], [ null, %Vec_IntAlloc.exit.thread ], [ %28, %30 ]
  store i32 %5, ptr %8, align 4, !tbaa !84
  %32 = load ptr, ptr %2, align 8, !tbaa !73
  %33 = getelementptr i8, ptr %32, i64 4
  %.val1929 = load i32, ptr %33, align 4, !tbaa !84
  %34 = icmp sgt i32 %.val1929, 0
  br i1 %34, label %.lr.ph, label %.critedge.preheader

.lr.ph:                                           ; preds = %Vec_IntFill.exit
  %35 = getelementptr i8, ptr %32, i64 8
  %.val21 = load ptr, ptr %35, align 8, !tbaa !74
  br label %39

.critedge.preheader:                              ; preds = %39, %Vec_IntFill.exit
  %36 = getelementptr i8, ptr %3, i64 4
  %.val = load i32, ptr %36, align 4, !tbaa !84
  %37 = icmp sgt i32 %.val, 0
  %38 = getelementptr i8, ptr %3, i64 8
  %.val20 = load ptr, ptr %38, align 8, !tbaa !74
  br i1 %37, label %.lr.ph32, label %.critedge2

.lr.ph32:                                         ; preds = %.critedge.preheader
  %wide.trip.count = zext nneg i32 %.val to i64
  br label %.critedge

39:                                               ; preds = %.lr.ph, %39
  %indvars.iv = phi i64 [ 0, %.lr.ph ], [ %indvars.iv.next, %39 ]
  %40 = getelementptr inbounds nuw i32, ptr %.val21, i64 %indvars.iv
  %41 = load i32, ptr %40, align 4, !tbaa !78
  %42 = sext i32 %41 to i64
  %43 = getelementptr inbounds i32, ptr %.val22, i64 %42
  store i32 0, ptr %43, align 4, !tbaa !78
  %indvars.iv.next = add nuw nsw i64 %indvars.iv, 1
  %.val19 = load i32, ptr %33, align 4, !tbaa !84
  %44 = sext i32 %.val19 to i64
  %45 = icmp slt i64 %indvars.iv.next, %44
  br i1 %45, label %39, label %.critedge.preheader, !llvm.loop !104

.critedge:                                        ; preds = %.lr.ph32, %.critedge
  %indvars.iv34 = phi i64 [ 0, %.lr.ph32 ], [ %indvars.iv.next35, %.critedge ]
  %46 = getelementptr inbounds nuw i32, ptr %.val20, i64 %indvars.iv34
  %47 = load i32, ptr %46, align 4, !tbaa !78
  %48 = sext i32 %47 to i64
  %49 = getelementptr inbounds i32, ptr %.val22, i64 %48
  store i32 0, ptr %49, align 4, !tbaa !78
  %indvars.iv.next35 = add nuw nsw i64 %indvars.iv34, 1
  %exitcond.not = icmp eq i64 %indvars.iv.next35, %wide.trip.count
  br i1 %exitcond.not, label %.critedge2.thread, label %.critedge, !llvm.loop !105

.critedge2:                                       ; preds = %.critedge.preheader
  %.not.i24 = icmp eq ptr %.val20, null
  br i1 %.not.i24, label %Vec_IntFree.exit, label %.critedge2.thread

.critedge2.thread:                                ; preds = %.critedge, %.critedge2
  tail call void @free(ptr noundef nonnull %.val20) #22
  br label %Vec_IntFree.exit

Vec_IntFree.exit:                                 ; preds = %.critedge2, %.critedge2.thread
  tail call void @free(ptr noundef nonnull %3) #22
  %50 = getelementptr inbounds nuw i8, ptr %32, i64 8
  %51 = load ptr, ptr %50, align 8, !tbaa !74
  %.not.i25 = icmp eq ptr %51, null
  br i1 %.not.i25, label %Vec_IntFree.exit26, label %52

52:                                               ; preds = %Vec_IntFree.exit
  tail call void @free(ptr noundef nonnull %51) #22
  br label %Vec_IntFree.exit26

Vec_IntFree.exit26:                               ; preds = %Vec_IntFree.exit, %52
  tail call void @free(ptr noundef nonnull %32) #22
  call void @llvm.lifetime.end.p0(i64 8, ptr nonnull %2) #22
  ret ptr %6
}